
output.elf:     file format elf32-littlearm


Disassembly of section .text:

00008000 <_start>:
    8000:	e3a0d902 	mov	sp, #32768	; 0x8000
    8004:	eb000088 	bl	822c <main>

00008008 <loop>:
    8008:	eafffffe 	b	8008 <loop>

0000800c <core1_main>:
    800c:	e3083378 	movw	r3, #33656	; 0x8378
    8010:	e30913df 	movw	r1, #37855	; 0x93df
    8014:	e3a00000 	mov	r0, #0
    8018:	e3403000 	movt	r3, #0
    801c:	e3401004 	movt	r1, #4
    8020:	e3430f20 	movt	r0, #16160	; 0x3f20
    8024:	e3a0c000 	mov	ip, #0
    8028:	e583c000 	str	ip, [r3]
    802c:	e5932000 	ldr	r2, [r3]
    8030:	e1520001 	cmp	r2, r1
    8034:	8a000005 	bhi	8050 <core1_main+0x44>
    8038:	e5932000 	ldr	r2, [r3]
    803c:	e2822001 	add	r2, r2, #1
    8040:	e5832000 	str	r2, [r3]
    8044:	e5932000 	ldr	r2, [r3]
    8048:	e1520001 	cmp	r2, r1
    804c:	9afffff9 	bls	8038 <core1_main+0x2c>
    8050:	e590201c 	ldr	r2, [r0, #28]
    8054:	e3822801 	orr	r2, r2, #65536	; 0x10000
    8058:	e580201c 	str	r2, [r0, #28]
    805c:	e583c000 	str	ip, [r3]
    8060:	e5932000 	ldr	r2, [r3]
    8064:	e1520001 	cmp	r2, r1
    8068:	8a000005 	bhi	8084 <core1_main+0x78>
    806c:	e5932000 	ldr	r2, [r3]
    8070:	e2822001 	add	r2, r2, #1
    8074:	e5832000 	str	r2, [r3]
    8078:	e5932000 	ldr	r2, [r3]
    807c:	e1520001 	cmp	r2, r1
    8080:	9afffff9 	bls	806c <core1_main+0x60>
    8084:	e5902028 	ldr	r2, [r0, #40]	; 0x28
    8088:	e3822801 	orr	r2, r2, #65536	; 0x10000
    808c:	e5802028 	str	r2, [r0, #40]	; 0x28
    8090:	eaffffe4 	b	8028 <core1_main+0x1c>

00008094 <core2_main>:
    8094:	e3083380 	movw	r3, #33664	; 0x8380
    8098:	e3001d3f 	movw	r1, #3391	; 0xd3f
    809c:	e3a00000 	mov	r0, #0
    80a0:	e3403000 	movt	r3, #0
    80a4:	e3401003 	movt	r1, #3
    80a8:	e3430f20 	movt	r0, #16160	; 0x3f20
    80ac:	e3a0c000 	mov	ip, #0
    80b0:	e583c000 	str	ip, [r3]
    80b4:	e5932000 	ldr	r2, [r3]
    80b8:	e1520001 	cmp	r2, r1
    80bc:	8a000005 	bhi	80d8 <core2_main+0x44>
    80c0:	e5932000 	ldr	r2, [r3]
    80c4:	e2822001 	add	r2, r2, #1
    80c8:	e5832000 	str	r2, [r3]
    80cc:	e5932000 	ldr	r2, [r3]
    80d0:	e1520001 	cmp	r2, r1
    80d4:	9afffff9 	bls	80c0 <core2_main+0x2c>
    80d8:	e590201c 	ldr	r2, [r0, #28]
    80dc:	e3822601 	orr	r2, r2, #1048576	; 0x100000
    80e0:	e580201c 	str	r2, [r0, #28]
    80e4:	e583c000 	str	ip, [r3]
    80e8:	e5932000 	ldr	r2, [r3]
    80ec:	e1520001 	cmp	r2, r1
    80f0:	8a000005 	bhi	810c <core2_main+0x78>
    80f4:	e5932000 	ldr	r2, [r3]
    80f8:	e2822001 	add	r2, r2, #1
    80fc:	e5832000 	str	r2, [r3]
    8100:	e5932000 	ldr	r2, [r3]
    8104:	e1520001 	cmp	r2, r1
    8108:	9afffff9 	bls	80f4 <core2_main+0x60>
    810c:	e5902028 	ldr	r2, [r0, #40]	; 0x28
    8110:	e3822601 	orr	r2, r2, #1048576	; 0x100000
    8114:	e5802028 	str	r2, [r0, #40]	; 0x28
    8118:	eaffffe4 	b	80b0 <core2_main+0x1c>

0000811c <core3_main>:
    811c:	e308337c 	movw	r3, #33660	; 0x837c
    8120:	e30a111f 	movw	r1, #41247	; 0xa11f
    8124:	e3a00000 	mov	r0, #0
    8128:	e3403000 	movt	r3, #0
    812c:	e3401007 	movt	r1, #7
    8130:	e3430f20 	movt	r0, #16160	; 0x3f20
    8134:	e3a0c000 	mov	ip, #0
    8138:	e583c000 	str	ip, [r3]
    813c:	e5932000 	ldr	r2, [r3]
    8140:	e1520001 	cmp	r2, r1
    8144:	8a000005 	bhi	8160 <core3_main+0x44>
    8148:	e5932000 	ldr	r2, [r3]
    814c:	e2822001 	add	r2, r2, #1
    8150:	e5832000 	str	r2, [r3]
    8154:	e5932000 	ldr	r2, [r3]
    8158:	e1520001 	cmp	r2, r1
    815c:	9afffff9 	bls	8148 <core3_main+0x2c>
    8160:	e590201c 	ldr	r2, [r0, #28]
    8164:	e3822602 	orr	r2, r2, #2097152	; 0x200000
    8168:	e580201c 	str	r2, [r0, #28]
    816c:	e583c000 	str	ip, [r3]
    8170:	e5932000 	ldr	r2, [r3]
    8174:	e1520001 	cmp	r2, r1
    8178:	8a000005 	bhi	8194 <core3_main+0x78>
    817c:	e5932000 	ldr	r2, [r3]
    8180:	e2822001 	add	r2, r2, #1
    8184:	e5832000 	str	r2, [r3]
    8188:	e5932000 	ldr	r2, [r3]
    818c:	e1520001 	cmp	r2, r1
    8190:	9afffff9 	bls	817c <core3_main+0x60>
    8194:	e5902028 	ldr	r2, [r0, #40]	; 0x28
    8198:	e3822602 	orr	r2, r2, #2097152	; 0x200000
    819c:	e5802028 	str	r2, [r0, #40]	; 0x28
    81a0:	eaffffe4 	b	8138 <core3_main+0x1c>

000081a4 <core0_submain>:
    81a4:	e3083384 	movw	r3, #33668	; 0x8384
    81a8:	e30a111f 	movw	r1, #41247	; 0xa11f
    81ac:	e3a00000 	mov	r0, #0
    81b0:	e3403000 	movt	r3, #0
    81b4:	e3401007 	movt	r1, #7
    81b8:	e3430f20 	movt	r0, #16160	; 0x3f20
    81bc:	e3a0c000 	mov	ip, #0
    81c0:	e583c000 	str	ip, [r3]
    81c4:	e5932000 	ldr	r2, [r3]
    81c8:	e1520001 	cmp	r2, r1
    81cc:	8a000005 	bhi	81e8 <core0_submain+0x44>
    81d0:	e5932000 	ldr	r2, [r3]
    81d4:	e2822001 	add	r2, r2, #1
    81d8:	e5832000 	str	r2, [r3]
    81dc:	e5932000 	ldr	r2, [r3]
    81e0:	e1520001 	cmp	r2, r1
    81e4:	9afffff9 	bls	81d0 <core0_submain+0x2c>
    81e8:	e5902020 	ldr	r2, [r0, #32]
    81ec:	e3822902 	orr	r2, r2, #32768	; 0x8000
    81f0:	e5802020 	str	r2, [r0, #32]
    81f4:	e583c000 	str	ip, [r3]
    81f8:	e5932000 	ldr	r2, [r3]
    81fc:	e1520001 	cmp	r2, r1
    8200:	8a000005 	bhi	821c <core0_submain+0x78>
    8204:	e5932000 	ldr	r2, [r3]
    8208:	e2822001 	add	r2, r2, #1
    820c:	e5832000 	str	r2, [r3]
    8210:	e5932000 	ldr	r2, [r3]
    8214:	e1520001 	cmp	r2, r1
    8218:	9afffff9 	bls	8204 <core0_submain+0x60>
    821c:	e590202c 	ldr	r2, [r0, #44]	; 0x2c
    8220:	e3822902 	orr	r2, r2, #32768	; 0x8000
    8224:	e580202c 	str	r2, [r0, #44]	; 0x2c
    8228:	eaffffe4 	b	81c0 <core0_submain+0x1c>

0000822c <main>:
    822c:	e3a0d902 	mov	sp, #32768	; 0x8000
    8230:	e3a03000 	mov	r3, #0
    8234:	e308000c 	movw	r0, #32780	; 0x800c
    8238:	e3433f20 	movt	r3, #16160	; 0x3f20
    823c:	e3400000 	movt	r0, #0
    8240:	e5932010 	ldr	r2, [r3, #16]
    8244:	e3822602 	orr	r2, r2, #2097152	; 0x200000
    8248:	e5832010 	str	r2, [r3, #16]
    824c:	e5932008 	ldr	r2, [r3, #8]
    8250:	e3822001 	orr	r2, r2, #1
    8254:	e5832008 	str	r2, [r3, #8]
    8258:	e5932008 	ldr	r2, [r3, #8]
    825c:	e3822008 	orr	r2, r2, #8
    8260:	e5832008 	str	r2, [r3, #8]
    8264:	e5932004 	ldr	r2, [r3, #4]
    8268:	e3822701 	orr	r2, r2, #262144	; 0x40000
    826c:	e5832004 	str	r2, [r3, #4]
    8270:	eb000009 	bl	829c <start_core1>
    8274:	e3080094 	movw	r0, #32916	; 0x8094
    8278:	e3400000 	movt	r0, #0
    827c:	eb000009 	bl	82a8 <start_core2>
    8280:	e308011c 	movw	r0, #33052	; 0x811c
    8284:	e3400000 	movt	r0, #0
    8288:	eb000009 	bl	82b4 <start_core3>
    828c:	ebffffc4 	bl	81a4 <core0_submain>

00008290 <get_core_number>:
    8290:	ee100fb0 	mrc	15, 0, r0, cr0, cr0, {5}
    8294:	e2000003 	and	r0, r0, #3
    8298:	e12fff1e 	bx	lr

0000829c <start_core1>:
    829c:	e3a03101 	mov	r3, #1073741824	; 0x40000000
    82a0:	e583009c 	str	r0, [r3, #156]	; 0x9c
    82a4:	e12fff1e 	bx	lr

000082a8 <start_core2>:
    82a8:	e3a03101 	mov	r3, #1073741824	; 0x40000000
    82ac:	e58300ac 	str	r0, [r3, #172]	; 0xac
    82b0:	e12fff1e 	bx	lr

000082b4 <start_core3>:
    82b4:	e3a03101 	mov	r3, #1073741824	; 0x40000000
    82b8:	e58300bc 	str	r0, [r3, #188]	; 0xbc
    82bc:	e12fff1e 	bx	lr

000082c0 <load32>:
    82c0:	e5900000 	ldr	r0, [r0]
    82c4:	e12fff1e 	bx	lr

000082c8 <store32>:
    82c8:	e5801000 	str	r1, [r0]
    82cc:	e12fff1e 	bx	lr

000082d0 <uart_init>:
    82d0:	e12fff1e 	bx	lr

000082d4 <enable_JTAG>:
    82d4:	e3a03000 	mov	r3, #0
    82d8:	e24dd008 	sub	sp, sp, #8
    82dc:	e3433f20 	movt	r3, #16160	; 0x3f20
    82e0:	e5932008 	ldr	r2, [r3, #8]
    82e4:	e58d2004 	str	r2, [sp, #4]
    82e8:	e59d2004 	ldr	r2, [sp, #4]
    82ec:	e3c22d07 	bic	r2, r2, #448	; 0x1c0
    82f0:	e58d2004 	str	r2, [sp, #4]
    82f4:	e59d2004 	ldr	r2, [sp, #4]
    82f8:	e38220c0 	orr	r2, r2, #192	; 0xc0
    82fc:	e58d2004 	str	r2, [sp, #4]
    8300:	e59d2004 	ldr	r2, [sp, #4]
    8304:	e3c22707 	bic	r2, r2, #1835008	; 0x1c0000
    8308:	e58d2004 	str	r2, [sp, #4]
    830c:	e59d2004 	ldr	r2, [sp, #4]
    8310:	e3822703 	orr	r2, r2, #786432	; 0xc0000
    8314:	e58d2004 	str	r2, [sp, #4]
    8318:	e59d2004 	ldr	r2, [sp, #4]
    831c:	e3c2260e 	bic	r2, r2, #14680064	; 0xe00000
    8320:	e58d2004 	str	r2, [sp, #4]
    8324:	e59d2004 	ldr	r2, [sp, #4]
    8328:	e3822606 	orr	r2, r2, #6291456	; 0x600000
    832c:	e58d2004 	str	r2, [sp, #4]
    8330:	e59d2004 	ldr	r2, [sp, #4]
    8334:	e3c2290e 	bic	r2, r2, #229376	; 0x38000
    8338:	e58d2004 	str	r2, [sp, #4]
    833c:	e59d2004 	ldr	r2, [sp, #4]
    8340:	e3822906 	orr	r2, r2, #98304	; 0x18000
    8344:	e58d2004 	str	r2, [sp, #4]
    8348:	e59d2004 	ldr	r2, [sp, #4]
    834c:	e3c22a07 	bic	r2, r2, #28672	; 0x7000
    8350:	e58d2004 	str	r2, [sp, #4]
    8354:	e59d2004 	ldr	r2, [sp, #4]
    8358:	e3822a03 	orr	r2, r2, #12288	; 0x3000
    835c:	e58d2004 	str	r2, [sp, #4]
    8360:	e59d2004 	ldr	r2, [sp, #4]
    8364:	e5931008 	ldr	r1, [r3, #8]
    8368:	e1812002 	orr	r2, r1, r2
    836c:	e5832008 	str	r2, [r3, #8]
    8370:	e28dd008 	add	sp, sp, #8
    8374:	e12fff1e 	bx	lr

Disassembly of section .bss:

00008378 <j>:
    8378:	00000000 	andeq	r0, r0, r0

0000837c <l>:
    837c:	00000000 	andeq	r0, r0, r0

00008380 <k>:
    8380:	00000000 	andeq	r0, r0, r0

00008384 <i>:
    8384:	00000000 	andeq	r0, r0, r0

Disassembly of section .ARM.attributes:

00000000 <.ARM.attributes>:
   0:	00003041 	andeq	r3, r0, r1, asr #32
   4:	61656100 	cmnvs	r5, r0, lsl #2
   8:	01006962 	tsteq	r0, r2, ror #18
   c:	00000026 	andeq	r0, r0, r6, lsr #32
  10:	412d3705 	teqmi	sp, r5, lsl #14
  14:	070a0600 	streq	r0, [sl, -r0, lsl #12]
  18:	09010841 	stmdbeq	r1, {r0, r6, fp}
  1c:	0c050a02 	stceq	10, cr0, [r5], {2}
  20:	14041202 	strne	r1, [r4], #-514	; 0x202
  24:	17011501 	strne	r1, [r1, -r1, lsl #10]
  28:	1a011803 	bne	4603c <i+0x3dcb8>
  2c:	22011c01 	andcs	r1, r1, #256	; 0x100
  30:	Address 0x00000030 is out of bounds.


Disassembly of section .comment:

00000000 <.comment>:
   0:	3a434347 	bcc	10d0d24 <i+0x10c89a0>
   4:	4e472820 	cdpmi	8, 4, cr2, cr7, cr0, {1}
   8:	6f542055 	svcvs	0x00542055
   c:	20736c6f 	rsbscs	r6, r3, pc, ror #24
  10:	20726f66 	rsbscs	r6, r2, r6, ror #30
  14:	204d5241 	subcs	r5, sp, r1, asr #4
  18:	65626d45 	strbvs	r6, [r2, #-3397]!	; 0xd45
  1c:	64656464 	strbtvs	r6, [r5], #-1124	; 0x464
  20:	6f725020 	svcvs	0x00725020
  24:	73736563 	cmnvc	r3, #415236096	; 0x18c00000
  28:	2973726f 	ldmdbcs	r3!, {r0, r1, r2, r3, r5, r6, r9, ip, sp, lr}^
  2c:	392e3420 	stmdbcc	lr!, {r5, sl, ip, sp}
  30:	3220332e 	eorcc	r3, r0, #-1207959552	; 0xb8000000
  34:	30353130 	eorscc	r3, r5, r0, lsr r1
  38:	20393235 	eorscs	r3, r9, r5, lsr r2
  3c:	6c657228 	sfmvs	f7, 2, [r5], #-160	; 0xffffff60
  40:	65736165 	ldrbvs	r6, [r3, #-357]!	; 0x165
  44:	415b2029 	cmpmi	fp, r9, lsr #32
  48:	652f4d52 	strvs	r4, [pc, #-3410]!	; fffff2fe <i+0xffff6f7a>
  4c:	6465626d 	strbtvs	r6, [r5], #-621	; 0x26d
  50:	2d646564 	cfstr64cs	mvdx6, [r4, #-400]!	; 0xfffffe70
  54:	2d395f34 	ldccs	15, cr5, [r9, #-208]!	; 0xffffff30
  58:	6e617262 	cdpvs	2, 6, cr7, cr1, cr2, {3}
  5c:	72206863 	eorvc	r6, r0, #6488064	; 0x630000
  60:	73697665 	cmnvc	r9, #105906176	; 0x6500000
  64:	206e6f69 	rsbcs	r6, lr, r9, ror #30
  68:	32343232 	eorscc	r3, r4, #536870915	; 0x20000003
  6c:	005d3838 	subseq	r3, sp, r8, lsr r8

Disassembly of section .debug_info:

00000000 <.debug_info>:
   0:	00000192 	muleq	r0, r2, r1
   4:	00000004 	andeq	r0, r0, r4
   8:	01040000 	mrseq	r0, (UNDEF: 4)
   c:	000000db 	ldrdeq	r0, [r0], -fp
  10:	0000b601 	andeq	fp, r0, r1, lsl #12
  14:	00001800 	andeq	r1, r0, r0, lsl #16
	...
  24:	06010200 	streq	r0, [r1], -r0, lsl #4
  28:	00000059 	andeq	r0, r0, r9, asr r0
  2c:	bd050202 	sfmlt	f0, 4, [r5, #-8]
  30:	02000000 	andeq	r0, r0, #0
  34:	00ad0504 	adceq	r0, sp, r4, lsl #10
  38:	08020000 	stmdaeq	r2, {}	; <UNPREDICTABLE>
  3c:	0000a805 	andeq	sl, r0, r5, lsl #16
  40:	08010200 	stmdaeq	r1, {r9}
  44:	00000057 	andeq	r0, r0, r7, asr r0
  48:	65070202 	strvs	r0, [r7, #-514]	; 0x202
  4c:	03000000 	movweq	r0, #0
  50:	000000d2 	ldrdeq	r0, [r0], -r2
  54:	005a3403 	subseq	r3, sl, r3, lsl #8
  58:	04020000 	streq	r0, [r2], #-0
  5c:	00009607 	andeq	r9, r0, r7, lsl #12
  60:	07080200 	streq	r0, [r8, -r0, lsl #4]
  64:	00000091 	muleq	r0, r1, r0
  68:	69050404 	stmdbvs	r5, {r2, sl}
  6c:	0200746e 	andeq	r7, r0, #1845493760	; 0x6e000000
  70:	009b0704 	addseq	r0, fp, r4, lsl #14
  74:	c7050000 	strgt	r0, [r5, -r0]
  78:	01000000 	mrseq	r0, (UNDEF: 0)
  7c:	00800c44 	addeq	r0, r0, r4, asr #24
  80:	00008800 	andeq	r8, r0, r0, lsl #16
  84:	059c0100 	ldreq	r0, [ip, #256]	; 0x100
  88:	00000040 	andeq	r0, r0, r0, asr #32
  8c:	80945101 	addshi	r5, r4, r1, lsl #2
  90:	00880000 	addeq	r0, r8, r0
  94:	9c010000 	stcls	0, cr0, [r1], {-0}
  98:	00008605 	andeq	r8, r0, r5, lsl #12
  9c:	1c5e0100 	ldfnee	f0, [lr], {-0}
  a0:	88000081 	stmdahi	r0, {r0, r7}
  a4:	01000000 	mrseq	r0, (UNDEF: 0)
  a8:	0078059c 			; <UNDEFINED> instruction: 0x0078059c
  ac:	38010000 	stmdacc	r1, {}	; <UNPREDICTABLE>
  b0:	000081a4 	andeq	r8, r0, r4, lsr #3
  b4:	00000088 	andeq	r0, r0, r8, lsl #1
  b8:	cd069c01 	stcgt	12, cr9, [r6, #-4]
  bc:	01000000 	mrseq	r0, (UNDEF: 0)
  c0:	00822c24 	addeq	r2, r2, r4, lsr #24
  c4:	00006400 	andeq	r6, r0, r0, lsl #8
  c8:	1e9c0100 	fmlnee	f0, f4, f0
  cc:	07000001 	streq	r0, [r0, -r1]
  d0:	00008274 	andeq	r8, r0, r4, ror r2
  d4:	0000015f 	andeq	r0, r0, pc, asr r1
  d8:	000000e6 	andeq	r0, r0, r6, ror #1
  dc:	05500108 	ldrbeq	r0, [r0, #-264]	; 0x108
  e0:	00800c03 	addeq	r0, r0, r3, lsl #24
  e4:	80070000 	andhi	r0, r7, r0
  e8:	77000082 	strvc	r0, [r0, -r2, lsl #1]
  ec:	fd000001 	stc2	0, cr0, [r0, #-4]
  f0:	08000000 	stmdaeq	r0, {}	; <UNPREDICTABLE>
  f4:	03055001 	movweq	r5, #20481	; 0x5001
  f8:	00008094 	muleq	r0, r4, r0
  fc:	828c0700 	addhi	r0, ip, #0, 14
 100:	01880000 	orreq	r0, r8, r0
 104:	01140000 	tsteq	r4, r0
 108:	01080000 	mrseq	r0, (UNDEF: 8)
 10c:	1c030550 	cfstr32ne	mvfx0, [r3], {80}	; 0x50
 110:	00000081 	andeq	r0, r0, r1, lsl #1
 114:	00829009 	addeq	r9, r2, r9
 118:	0000a900 	andeq	sl, r0, r0, lsl #18
 11c:	690a0000 	stmdbvs	sl, {}	; <UNPREDICTABLE>
 120:	2d1f0100 	ldfcss	f0, [pc, #-0]	; 128 <_start-0x7ed8>
 124:	05000001 	streq	r0, [r0, #-1]
 128:	00838403 	addeq	r8, r3, r3, lsl #8
 12c:	004f0b00 	subeq	r0, pc, r0, lsl #22
 130:	6a0a0000 	bvs	280138 <i+0x277db4>
 134:	2d200100 	stfcss	f0, [r0, #-0]
 138:	05000001 	streq	r0, [r0, #-1]
 13c:	00837803 	addeq	r7, r3, r3, lsl #16
 140:	006b0a00 	rsbeq	r0, fp, r0, lsl #20
 144:	012d2101 	teqeq	sp, r1, lsl #2
 148:	03050000 	movweq	r0, #20480	; 0x5000
 14c:	00008380 	andeq	r8, r0, r0, lsl #7
 150:	01006c0a 	tsteq	r0, sl, lsl #24
 154:	00012d22 	andeq	r2, r1, r2, lsr #26
 158:	7c030500 	cfstr32vc	mvfx0, [r3], {-0}
 15c:	0c000083 	stceq	0, cr0, [r0], {131}	; 0x83
 160:	00000000 	andeq	r0, r0, r0
 164:	01701b02 	cmneq	r0, r2, lsl #22
 168:	700d0000 	andvc	r0, sp, r0
 16c:	00000001 	andeq	r0, r0, r1
 170:	0176040e 	cmneq	r6, lr, lsl #8
 174:	0c0f0000 	stceq	0, cr0, [pc], {-0}
 178:	0000000c 	andeq	r0, r0, ip
 17c:	01881c02 	orreq	r1, r8, r2, lsl #24
 180:	700d0000 	andvc	r0, sp, r0
 184:	00000001 	andeq	r0, r0, r1
 188:	00004b10 	andeq	r4, r0, r0, lsl fp
 18c:	0d1d0200 	lfmeq	f0, 4, [sp, #-0]
 190:	00000170 	andeq	r0, r0, r0, ror r1
 194:	02140000 	andseq	r0, r4, #0
 198:	00040000 	andeq	r0, r4, r0
 19c:	000000e0 	andeq	r0, r0, r0, ror #1
 1a0:	00db0104 	sbcseq	r0, fp, r4, lsl #2
 1a4:	a1010000 	mrsge	r0, (UNDEF: 1)
 1a8:	18000001 	stmdane	r0, {r0}
 1ac:	90000000 	andls	r0, r0, r0
 1b0:	e8000082 	stmda	r0, {r1, r7}
 1b4:	2a000000 	bcs	1bc <_start-0x7e44>
 1b8:	02000001 	andeq	r0, r0, #1
 1bc:	00590601 	subseq	r0, r9, r1, lsl #12
 1c0:	02020000 	andeq	r0, r2, #0
 1c4:	0000bd05 	andeq	fp, r0, r5, lsl #26
 1c8:	05040200 	streq	r0, [r4, #-512]	; 0x200
 1cc:	000000ad 	andeq	r0, r0, sp, lsr #1
 1d0:	a8050802 	stmdage	r5, {r1, fp}
 1d4:	02000000 	andeq	r0, r0, #0
 1d8:	00570801 	subseq	r0, r7, r1, lsl #16
 1dc:	02020000 	andeq	r0, r2, #0
 1e0:	00006507 	andeq	r6, r0, r7, lsl #10
 1e4:	00d20300 	sbcseq	r0, r2, r0, lsl #6
 1e8:	34020000 	strcc	r0, [r2], #-0
 1ec:	0000005a 	andeq	r0, r0, sl, asr r0
 1f0:	96070402 	strls	r0, [r7], -r2, lsl #8
 1f4:	02000000 	andeq	r0, r0, #0
 1f8:	00910708 	addseq	r0, r1, r8, lsl #14
 1fc:	04040000 	streq	r0, [r4], #-0
 200:	746e6905 	strbtvc	r6, [lr], #-2309	; 0x905
 204:	07040200 	streq	r0, [r4, -r0, lsl #4]
 208:	0000009b 	muleq	r0, fp, r0
 20c:	0001af05 	andeq	sl, r1, r5, lsl #30
 210:	01280100 	teqeq	r8, r0, lsl #2
 214:	00000099 	muleq	r0, r9, r0
 218:	0001b706 	andeq	fp, r1, r6, lsl #14
 21c:	4f280100 	svcmi	0x00280100
 220:	06000000 	streq	r0, [r0], -r0
 224:	0000017c 	andeq	r0, r0, ip, ror r1
 228:	004f2801 	subeq	r2, pc, r1, lsl #16
 22c:	07000000 	streq	r0, [r0, -r0]
 230:	000001c6 	andeq	r0, r0, r6, asr #3
 234:	004f0701 	subeq	r0, pc, r1, lsl #14
 238:	82900000 	addshi	r0, r0, #0
 23c:	000c0000 	andeq	r0, ip, r0
 240:	9c010000 	stcls	0, cr0, [r1], {-0}
 244:	000000c2 	andeq	r0, r0, r2, asr #1
 248:	00018208 	andeq	r8, r1, r8, lsl #4
 24c:	4f090100 	svcmi	0x00090100
	...
 258:	00000009 	andeq	r0, r0, r9
 25c:	9c100100 	ldflss	f0, [r0], {-0}
 260:	0c000082 	stceq	0, cr0, [r0], {130}	; 0x82
 264:	01000000 	mrseq	r0, (UNDEF: 0)
 268:	0001059c 	muleq	r1, ip, r5
 26c:	01aa0a00 			; <UNDEFINED> instruction: 0x01aa0a00
 270:	10010000 	andne	r0, r1, r0
 274:	00000106 	andeq	r0, r0, r6, lsl #2
 278:	760b5001 	strvc	r5, [fp], -r1
 27c:	9c000000 	stcls	0, cr0, [r0], {-0}
 280:	0c000082 	stceq	0, cr0, [r0], {130}	; 0x82
 284:	01000000 	mrseq	r0, (UNDEF: 0)
 288:	008d0c12 	addeq	r0, sp, r2, lsl ip
 28c:	50010000 	andpl	r0, r1, r0
 290:	0000820d 	andeq	r8, r0, sp, lsl #4
 294:	00009c00 	andeq	r9, r0, r0, lsl #24
 298:	0e000040 	cdpeq	0, 0, cr0, cr0, cr0, {2}
 29c:	0105040f 	tsteq	r5, pc, lsl #8
 2a0:	0c090000 	stceq	0, cr0, [r9], {-0}
 2a4:	01000000 	mrseq	r0, (UNDEF: 0)
 2a8:	0082a816 	addeq	sl, r2, r6, lsl r8
 2ac:	00000c00 	andeq	r0, r0, r0, lsl #24
 2b0:	4f9c0100 	svcmi	0x009c0100
 2b4:	0a000001 	beq	2c0 <_start-0x7d40>
 2b8:	000001aa 	andeq	r0, r0, sl, lsr #3
 2bc:	01061601 	tsteq	r6, r1, lsl #12
 2c0:	50010000 	andpl	r0, r1, r0
 2c4:	0000760b 	andeq	r7, r0, fp, lsl #12
 2c8:	0082a800 	addeq	sl, r2, r0, lsl #16
 2cc:	00000c00 	andeq	r0, r0, r0, lsl #24
 2d0:	0c180100 	ldfeqs	f0, [r8], {-0}
 2d4:	0000008d 	andeq	r0, r0, sp, lsl #1
 2d8:	820d5001 	andhi	r5, sp, #1
 2dc:	ac000000 	stcge	0, cr0, [r0], {-0}
 2e0:	00400000 	subeq	r0, r0, r0
 2e4:	004b0900 	subeq	r0, fp, r0, lsl #18
 2e8:	1c010000 	stcne	0, cr0, [r1], {-0}
 2ec:	000082b4 			; <UNDEFINED> instruction: 0x000082b4
 2f0:	0000000c 	andeq	r0, r0, ip
 2f4:	01929c01 	orrseq	r9, r2, r1, lsl #24
 2f8:	aa0a0000 	bge	280300 <i+0x277f7c>
 2fc:	01000001 	tsteq	r0, r1
 300:	0001061c 	andeq	r0, r1, ip, lsl r6
 304:	0b500100 	bleq	140070c <i+0x13f8388>
 308:	00000076 	andeq	r0, r0, r6, ror r0
 30c:	000082b4 			; <UNDEFINED> instruction: 0x000082b4
 310:	0000000c 	andeq	r0, r0, ip
 314:	8d0c1e01 	stchi	14, cr1, [ip, #-4]
 318:	01000000 	mrseq	r0, (UNDEF: 0)
 31c:	00820d50 	addeq	r0, r2, r0, asr sp
 320:	00bc0000 	adcseq	r0, ip, r0
 324:	00004000 	andeq	r4, r0, r0
 328:	0001bf07 	andeq	fp, r1, r7, lsl #30
 32c:	4f220100 	svcmi	0x00220100
 330:	c0000000 	andgt	r0, r0, r0
 334:	08000082 	stmdaeq	r0, {r1, r7}
 338:	01000000 	mrseq	r0, (UNDEF: 0)
 33c:	0001bb9c 	muleq	r1, ip, fp
 340:	01b71000 			; <UNDEFINED> instruction: 0x01b71000
 344:	22010000 	andcs	r0, r1, #0
 348:	0000004f 	andeq	r0, r0, pc, asr #32
 34c:	00000013 	andeq	r0, r0, r3, lsl r0
 350:	00761100 	rsbseq	r1, r6, r0, lsl #2
 354:	82c80000 	sbchi	r0, r8, #0
 358:	00080000 	andeq	r0, r8, r0
 35c:	9c010000 	stcls	0, cr0, [r1], {-0}
 360:	000001dd 	ldrdeq	r0, [r0], -sp
 364:	0000820c 	andeq	r8, r0, ip, lsl #4
 368:	0c500100 	ldfeqe	f0, [r0], {-0}
 36c:	0000008d 	andeq	r0, r0, sp, lsl #1
 370:	12005101 	andne	r5, r0, #1073741824	; 0x40000000
 374:	00000197 	muleq	r0, r7, r1
 378:	82d02d01 	sbcshi	r2, r0, #1, 26	; 0x40
 37c:	00040000 	andeq	r0, r4, r0
 380:	9c010000 	stcls	0, cr0, [r1], {-0}
 384:	00018b09 	andeq	r8, r1, r9, lsl #22
 388:	d4320100 	ldrtle	r0, [r2], #-256	; 0x100
 38c:	a4000082 	strge	r0, [r0], #-130	; 0x82
 390:	01000000 	mrseq	r0, (UNDEF: 0)
 394:	0002129c 	muleq	r2, ip, r2
 398:	6d741300 	ldclvs	3, cr1, [r4, #-0]
 39c:	34010070 	strcc	r0, [r1], #-112	; 0x70
 3a0:	00000212 	andeq	r0, r0, r2, lsl r2
 3a4:	007c9102 	rsbseq	r9, ip, r2, lsl #2
 3a8:	00004f14 	andeq	r4, r0, r4, lsl pc
	...

Disassembly of section .debug_abbrev:

00000000 <.debug_abbrev>:
   0:	25011101 	strcs	r1, [r1, #-257]	; 0x101
   4:	030b130e 	movweq	r1, #45838	; 0xb30e
   8:	550e1b0e 	strpl	r1, [lr, #-2830]	; 0xb0e
   c:	10011117 	andne	r1, r1, r7, lsl r1
  10:	02000017 	andeq	r0, r0, #23
  14:	0b0b0024 	bleq	2c00ac <i+0x2b7d28>
  18:	0e030b3e 	vmoveq.16	d3[0], r0
  1c:	16030000 	strne	r0, [r3], -r0
  20:	3a0e0300 	bcc	380c28 <i+0x3788a4>
  24:	490b3b0b 	stmdbmi	fp, {r0, r1, r3, r8, r9, fp, ip, sp}
  28:	04000013 	streq	r0, [r0], #-19
  2c:	0b0b0024 	bleq	2c00c4 <i+0x2b7d40>
  30:	08030b3e 	stmdaeq	r3, {r1, r2, r3, r4, r5, r8, r9, fp}
  34:	2e050000 	cdpcs	0, 0, cr0, cr5, cr0, {0}
  38:	03193f00 	tsteq	r9, #0, 30
  3c:	3b0b3a0e 	blcc	2ce87c <i+0x2c64f8>
  40:	1119270b 	tstne	r9, fp, lsl #14
  44:	40061201 	andmi	r1, r6, r1, lsl #4
  48:	19429718 	stmdbne	r2, {r3, r4, r8, r9, sl, ip, pc}^
  4c:	2e060000 	cdpcs	0, 0, cr0, cr6, cr0, {0}
  50:	03193f01 	tsteq	r9, #1, 30
  54:	3b0b3a0e 	blcc	2ce894 <i+0x2c6510>
  58:	1119270b 	tstne	r9, fp, lsl #14
  5c:	40061201 	andmi	r1, r6, r1, lsl #4
  60:	19429718 	stmdbne	r2, {r3, r4, r8, r9, sl, ip, pc}^
  64:	00001301 	andeq	r1, r0, r1, lsl #6
  68:	01828907 	orreq	r8, r2, r7, lsl #18
  6c:	31011101 	tstcc	r1, r1, lsl #2
  70:	00130113 	andseq	r0, r3, r3, lsl r1
  74:	828a0800 	addhi	r0, sl, #0, 16
  78:	18020001 	stmdane	r2, {r0}
  7c:	00184291 	mulseq	r8, r1, r2
  80:	82890900 	addhi	r0, r9, #0, 18
  84:	01110001 	tsteq	r1, r1
  88:	00001331 	andeq	r1, r0, r1, lsr r3
  8c:	0300340a 	movweq	r3, #1034	; 0x40a
  90:	3b0b3a08 	blcc	2ce8b8 <i+0x2c6534>
  94:	3f13490b 	svccc	0x0013490b
  98:	00180219 	andseq	r0, r8, r9, lsl r2
  9c:	00350b00 	eorseq	r0, r5, r0, lsl #22
  a0:	00001349 	andeq	r1, r0, r9, asr #6
  a4:	3f012e0c 	svccc	0x00012e0c
  a8:	3a0e0319 	bcc	380d14 <i+0x378990>
  ac:	270b3b0b 	strcs	r3, [fp, -fp, lsl #22]
  b0:	01193c19 	tsteq	r9, r9, lsl ip
  b4:	0d000013 	stceq	0, cr0, [r0, #-76]	; 0xffffffb4
  b8:	13490005 	movtne	r0, #36869	; 0x9005
  bc:	0f0e0000 	svceq	0x000e0000
  c0:	490b0b00 	stmdbmi	fp, {r8, r9, fp}
  c4:	0f000013 	svceq	0x00000013
  c8:	19270015 	stmdbne	r7!, {r0, r2, r4}
  cc:	2e100000 	cdpcs	0, 1, cr0, cr0, cr0, {0}
  d0:	03193f01 	tsteq	r9, #1, 30
  d4:	3b0b3a0e 	blcc	2ce914 <i+0x2c6590>
  d8:	3c19270b 	ldccc	7, cr2, [r9], {11}
  dc:	00000019 	andeq	r0, r0, r9, lsl r0
  e0:	25011101 	strcs	r1, [r1, #-257]	; 0x101
  e4:	030b130e 	movweq	r1, #45838	; 0xb30e
  e8:	110e1b0e 	tstne	lr, lr, lsl #22
  ec:	10061201 	andne	r1, r6, r1, lsl #4
  f0:	02000017 	andeq	r0, r0, #23
  f4:	0b0b0024 	bleq	2c018c <i+0x2b7e08>
  f8:	0e030b3e 	vmoveq.16	d3[0], r0
  fc:	16030000 	strne	r0, [r3], -r0
 100:	3a0e0300 	bcc	380d08 <i+0x378984>
 104:	490b3b0b 	stmdbmi	fp, {r0, r1, r3, r8, r9, fp, ip, sp}
 108:	04000013 	streq	r0, [r0], #-19
 10c:	0b0b0024 	bleq	2c01a4 <i+0x2b7e20>
 110:	08030b3e 	stmdaeq	r3, {r1, r2, r3, r4, r5, r8, r9, fp}
 114:	2e050000 	cdpcs	0, 0, cr0, cr5, cr0, {0}
 118:	03193f01 	tsteq	r9, #1, 30
 11c:	3b0b3a0e 	blcc	2ce95c <i+0x2c65d8>
 120:	2019270b 	andscs	r2, r9, fp, lsl #14
 124:	0013010b 	andseq	r0, r3, fp, lsl #2
 128:	00050600 	andeq	r0, r5, r0, lsl #12
 12c:	0b3a0e03 	bleq	e83940 <i+0xe7b5bc>
 130:	13490b3b 	movtne	r0, #39739	; 0x9b3b
 134:	2e070000 	cdpcs	0, 0, cr0, cr7, cr0, {0}
 138:	03193f01 	tsteq	r9, #1, 30
 13c:	3b0b3a0e 	blcc	2ce97c <i+0x2c65f8>
 140:	4919270b 	ldmdbmi	r9, {r0, r1, r3, r8, r9, sl, sp}
 144:	12011113 	andne	r1, r1, #-1073741820	; 0xc0000004
 148:	97184006 	ldrls	r4, [r8, -r6]
 14c:	13011942 	movwne	r1, #6466	; 0x1942
 150:	34080000 	strcc	r0, [r8], #-0
 154:	3a0e0300 	bcc	380d5c <i+0x3789d8>
 158:	490b3b0b 	stmdbmi	fp, {r0, r1, r3, r8, r9, fp, ip, sp}
 15c:	00170213 	andseq	r0, r7, r3, lsl r2
 160:	012e0900 	teqeq	lr, r0, lsl #18
 164:	0e03193f 	mcreq	9, 0, r1, cr3, cr15, {1}
 168:	0b3b0b3a 	bleq	ec2e58 <i+0xebaad4>
 16c:	01111927 	tsteq	r1, r7, lsr #18
 170:	18400612 	stmdane	r0, {r1, r4, r9, sl}^
 174:	01194297 			; <UNDEFINED> instruction: 0x01194297
 178:	0a000013 	beq	1cc <_start-0x7e34>
 17c:	0e030005 	cdpeq	0, 0, cr0, cr3, cr5, {0}
 180:	0b3b0b3a 	bleq	ec2e70 <i+0xebaaec>
 184:	18021349 	stmdane	r2, {r0, r3, r6, r8, r9, ip}
 188:	1d0b0000 	stcne	0, cr0, [fp, #-0]
 18c:	11133101 	tstne	r3, r1, lsl #2
 190:	58061201 	stmdapl	r6, {r0, r9, ip}
 194:	000b590b 	andeq	r5, fp, fp, lsl #18
 198:	00050c00 	andeq	r0, r5, r0, lsl #24
 19c:	18021331 	stmdane	r2, {r0, r4, r5, r8, r9, ip}
 1a0:	050d0000 	streq	r0, [sp, #-0]
 1a4:	1c133100 	ldfnes	f3, [r3], {-0}
 1a8:	0e000006 	cdpeq	0, 0, cr0, cr0, cr6, {0}
 1ac:	19270015 	stmdbne	r7!, {r0, r2, r4}
 1b0:	0f0f0000 	svceq	0x000f0000
 1b4:	490b0b00 	stmdbmi	fp, {r8, r9, fp}
 1b8:	10000013 	andne	r0, r0, r3, lsl r0
 1bc:	0e030005 	cdpeq	0, 0, cr0, cr3, cr5, {0}
 1c0:	0b3b0b3a 	bleq	ec2eb0 <i+0xebab2c>
 1c4:	17021349 	strne	r1, [r2, -r9, asr #6]
 1c8:	2e110000 	cdpcs	0, 1, cr0, cr1, cr0, {0}
 1cc:	11133101 	tstne	r3, r1, lsl #2
 1d0:	40061201 	andmi	r1, r6, r1, lsl #4
 1d4:	19429718 	stmdbne	r2, {r3, r4, r8, r9, sl, ip, pc}^
 1d8:	00001301 	andeq	r1, r0, r1, lsl #6
 1dc:	3f002e12 	svccc	0x00002e12
 1e0:	3a0e0319 	bcc	380e4c <i+0x378ac8>
 1e4:	270b3b0b 	strcs	r3, [fp, -fp, lsl #22]
 1e8:	12011119 	andne	r1, r1, #1073741830	; 0x40000006
 1ec:	97184006 	ldrls	r4, [r8, -r6]
 1f0:	00001942 	andeq	r1, r0, r2, asr #18
 1f4:	03003413 	movweq	r3, #1043	; 0x413
 1f8:	3b0b3a08 	blcc	2cea20 <i+0x2c669c>
 1fc:	0213490b 	andseq	r4, r3, #180224	; 0x2c000
 200:	14000018 	strne	r0, [r0], #-24
 204:	13490035 	movtne	r0, #36917	; 0x9035
 208:	Address 0x00000208 is out of bounds.


Disassembly of section .debug_aranges:

00000000 <.debug_aranges>:
   0:	00000024 	andeq	r0, r0, r4, lsr #32
   4:	00000002 	andeq	r0, r0, r2
   8:	00040000 	andeq	r0, r4, r0
   c:	00000000 	andeq	r0, r0, r0
  10:	0000800c 	andeq	r8, r0, ip
  14:	00000220 	andeq	r0, r0, r0, lsr #4
  18:	0000822c 	andeq	r8, r0, ip, lsr #4
  1c:	00000064 	andeq	r0, r0, r4, rrx
	...
  28:	0000001c 	andeq	r0, r0, ip, lsl r0
  2c:	01960002 	orrseq	r0, r6, r2
  30:	00040000 	andeq	r0, r4, r0
  34:	00000000 	andeq	r0, r0, r0
  38:	00008290 	muleq	r0, r0, r2
  3c:	000000e8 	andeq	r0, r0, r8, ror #1
	...

Disassembly of section .debug_ranges:

00000000 <.debug_ranges>:
   0:	0000800c 	andeq	r8, r0, ip
   4:	0000822c 	andeq	r8, r0, ip, lsr #4
   8:	0000822c 	andeq	r8, r0, ip, lsr #4
   c:	00008290 	muleq	r0, r0, r2
	...

Disassembly of section .debug_line:

00000000 <.debug_line>:
   0:	00000126 	andeq	r0, r0, r6, lsr #2
   4:	008f0002 	addeq	r0, pc, r2
   8:	01020000 	mrseq	r0, (UNDEF: 2)
   c:	000d0efb 	strdeq	r0, [sp], -fp
  10:	01010101 	tsteq	r1, r1, lsl #2
  14:	01000000 	mrseq	r0, (UNDEF: 0)
  18:	2e010000 	cdpcs	0, 0, cr0, cr1, cr0, {0}
  1c:	682f002e 	stmdavs	pc!, {r1, r2, r3, r5}	; <UNPREDICTABLE>
  20:	2f656d6f 	svccs	0x00656d6f
  24:	6f626f72 	svcvs	0x00626f72
  28:	776f442f 	strbvc	r4, [pc, -pc, lsr #8]!
  2c:	616f6c6e 	cmnvs	pc, lr, ror #24
  30:	672f7364 	strvs	r7, [pc, -r4, ror #6]!
  34:	612d6363 	teqvs	sp, r3, ror #6
  38:	6e2d6d72 	mcrvs	13, 1, r6, cr13, cr2, {3}
  3c:	2d656e6f 	stclcs	14, cr6, [r5, #-444]!	; 0xfffffe44
  40:	69626165 	stmdbvs	r2!, {r0, r2, r5, r6, r8, sp, lr}^
  44:	395f342d 	ldmdbcc	pc, {r0, r2, r3, r5, sl, ip, sp}^	; <UNPREDICTABLE>
  48:	3130322d 	teqcc	r0, sp, lsr #4
  4c:	2f327135 	svccs	0x00327135
  50:	2f62696c 	svccs	0x0062696c
  54:	2f636367 	svccs	0x00636367
  58:	2d6d7261 	sfmcs	f7, 2, [sp, #-388]!	; 0xfffffe7c
  5c:	656e6f6e 	strbvs	r6, [lr, #-3950]!	; 0xf6e
  60:	6261652d 	rsbvs	r6, r1, #188743680	; 0xb400000
  64:	2e342f69 	cdpcs	15, 3, cr2, cr4, cr9, {3}
  68:	2f332e39 	svccs	0x00332e39
  6c:	6c636e69 	stclvs	14, cr6, [r3], #-420	; 0xfffffe5c
  70:	00656475 	rsbeq	r6, r5, r5, ror r4
  74:	69616d00 	stmdbvs	r1!, {r8, sl, fp, sp, lr}^
  78:	00632e6e 	rsbeq	r2, r3, lr, ror #28
  7c:	6c000000 	stcvs	0, cr0, [r0], {-0}
  80:	682e6269 	stmdavs	lr!, {r0, r3, r5, r6, r9, sp, lr}
  84:	00000100 	andeq	r0, r0, r0, lsl #2
  88:	69647473 	stmdbvs	r4!, {r0, r1, r4, r5, r6, sl, ip, sp, lr}^
  8c:	672d746e 	strvs	r7, [sp, -lr, ror #8]!
  90:	682e6363 	stmdavs	lr!, {r0, r1, r5, r6, r8, r9, sp, lr}
  94:	00000200 	andeq	r0, r0, r0, lsl #4
  98:	02050000 	andeq	r0, r5, #0
  9c:	0000800c 	andeq	r8, r0, ip
  a0:	0100c403 	tsteq	r0, r3, lsl #8
  a4:	2f492f33 	svccs	0x00492f33
  a8:	0402002d 	streq	r0, [r2], #-45	; 0x2d
  ac:	069e0603 	ldreq	r0, [lr], r3, lsl #12
  b0:	020067bb 	andeq	r6, r0, #49020928	; 0x2ec0000
  b4:	82060304 	andhi	r0, r6, #4, 6	; 0x10000000
  b8:	3267bb06 	rsbcc	fp, r7, #6144	; 0x1800
  bc:	2f492f33 	svccs	0x00492f33
  c0:	0402002d 	streq	r0, [r2], #-45	; 0x2d
  c4:	069e0603 	ldreq	r0, [lr], r3, lsl #12
  c8:	020067bb 	andeq	r6, r0, #49020928	; 0x2ec0000
  cc:	82060304 	andhi	r0, r6, #4, 6	; 0x10000000
  d0:	3267bb06 	rsbcc	fp, r7, #6144	; 0x1800
  d4:	2f492f34 	svccs	0x00492f34
  d8:	0402002d 	streq	r0, [r2], #-45	; 0x2d
  dc:	069e0603 	ldreq	r0, [lr], r3, lsl #12
  e0:	020067bb 	andeq	r6, r0, #49020928	; 0x2ec0000
  e4:	82060304 	andhi	r0, r6, #4, 6	; 0x10000000
  e8:	0367bb06 	cmneq	r7, #6144	; 0x1800
  ec:	2f312e50 	svccs	0x00312e50
  f0:	002d2f49 	eoreq	r2, sp, r9, asr #30
  f4:	06030402 	streq	r0, [r3], -r2, lsl #8
  f8:	67bb069e 			; <UNDEFINED> instruction: 0x67bb069e
  fc:	03040200 	movweq	r0, #16896	; 0x4200
 100:	bb068206 	bllt	1a0920 <i+0x19859c>
 104:	00020267 	andeq	r0, r2, r7, ror #4
 108:	05000101 	streq	r0, [r0, #-257]	; 0x101
 10c:	00822c02 	addeq	r2, r2, r2, lsl #24
 110:	01240300 	teqeq	r4, r0, lsl #6
 114:	03343015 	teqeq	r4, #21
 118:	03342e7a 	teqeq	r4, #1952	; 0x7a0
 11c:	67682e7a 			; <UNDEFINED> instruction: 0x67682e7a
 120:	672f6867 	strvs	r6, [pc, -r7, ror #16]!
 124:	00020268 	andeq	r0, r2, r8, ror #4
 128:	00c10101 	sbceq	r0, r1, r1, lsl #2
 12c:	00020000 	andeq	r0, r2, r0
 130:	00000085 	andeq	r0, r0, r5, lsl #1
 134:	0efb0102 	cdpeq	1, 15, cr0, cr11, cr2, {0}
 138:	0101000d 	tsteq	r1, sp
 13c:	00000101 	andeq	r0, r0, r1, lsl #2
 140:	00000100 	andeq	r0, r0, r0, lsl #2
 144:	002e2e01 	eoreq	r2, lr, r1, lsl #28
 148:	6d6f682f 	stclvs	8, cr6, [pc, #-188]!	; 94 <_start-0x7f6c>
 14c:	6f722f65 	svcvs	0x00722f65
 150:	442f6f62 	strtmi	r6, [pc], #-3938	; 158 <_start-0x7ea8>
 154:	6c6e776f 	stclvs	7, cr7, [lr], #-444	; 0xfffffe44
 158:	7364616f 	cmnvc	r4, #-1073741797	; 0xc000001b
 15c:	6363672f 	cmnvs	r3, #12320768	; 0xbc0000
 160:	6d72612d 	ldfvse	f6, [r2, #-180]!	; 0xffffff4c
 164:	6e6f6e2d 	cdpvs	14, 6, cr6, cr15, cr13, {1}
 168:	61652d65 	cmnvs	r5, r5, ror #26
 16c:	342d6962 	strtcc	r6, [sp], #-2402	; 0x962
 170:	322d395f 	eorcc	r3, sp, #1556480	; 0x17c000
 174:	71353130 	teqvc	r5, r0, lsr r1
 178:	696c2f32 	stmdbvs	ip!, {r1, r4, r5, r8, r9, sl, fp, sp}^
 17c:	63672f62 	cmnvs	r7, #392	; 0x188
 180:	72612f63 	rsbvc	r2, r1, #396	; 0x18c
 184:	6f6e2d6d 	svcvs	0x006e2d6d
 188:	652d656e 	strvs	r6, [sp, #-1390]!	; 0x56e
 18c:	2f696261 	svccs	0x00696261
 190:	2e392e34 	mrccs	14, 1, r2, cr9, cr4, {1}
 194:	6e692f33 	mcrvs	15, 3, r2, cr9, cr3, {1}
 198:	64756c63 	ldrbtvs	r6, [r5], #-3171	; 0xc63
 19c:	6c000065 	stcvs	0, cr0, [r0], {101}	; 0x65
 1a0:	632e6269 	teqvs	lr, #-1879048186	; 0x90000006
 1a4:	00000100 	andeq	r0, r0, r0, lsl #2
 1a8:	69647473 	stmdbvs	r4!, {r0, r1, r4, r5, r6, sl, ip, sp, lr}^
 1ac:	672d746e 	strvs	r7, [sp, -lr, ror #8]!
 1b0:	682e6363 	stmdavs	lr!, {r0, r1, r5, r6, r8, r9, sp, lr}
 1b4:	00000200 	andeq	r0, r0, r0, lsl #4
 1b8:	02050000 	andeq	r0, r5, #0
 1bc:	00008290 	muleq	r0, r0, r2
 1c0:	4e311419 	mrcmi	4, 1, r1, cr1, cr9, {0}
 1c4:	03011903 	movweq	r1, #6403	; 0x1903
 1c8:	1303666d 	movwne	r6, #13933	; 0x366d
 1cc:	66730301 	ldrbtvs	r0, [r3], -r1, lsl #6
 1d0:	03010d03 	movweq	r0, #7427	; 0x1d03
 1d4:	4e146679 	mrcmi	6, 0, r6, cr4, cr9, {3}
 1d8:	15334e13 	ldrne	r4, [r3, #-3603]!	; 0xe13
 1dc:	6768312b 	strbvs	r3, [r8, -fp, lsr #2]!
 1e0:	67686768 	strbvs	r6, [r8, -r8, ror #14]!
 1e4:	67686768 	strbvs	r6, [r8, -r8, ror #14]!
 1e8:	04028368 	streq	r8, [r2], #-872	; 0x368
 1ec:	Address 0x000001ec is out of bounds.


Disassembly of section .debug_str:

00000000 <.debug_str>:
   0:	72617473 	rsbvc	r7, r1, #1929379840	; 0x73000000
   4:	6f635f74 	svcvs	0x00635f74
   8:	00316572 	eorseq	r6, r1, r2, ror r5
   c:	72617473 	rsbvc	r7, r1, #1929379840	; 0x73000000
  10:	6f635f74 	svcvs	0x00635f74
  14:	00326572 	eorseq	r6, r2, r2, ror r5
  18:	6d6f682f 	stclvs	8, cr6, [pc, #-188]!	; ffffff64 <i+0xffff7be0>
  1c:	6f722f65 	svcvs	0x00722f65
  20:	442f6f62 	strtmi	r6, [pc], #-3938	; 28 <_start-0x7fd8>
  24:	6d75636f 	ldclvs	3, cr6, [r5, #-444]!	; 0xfffffe44
  28:	73746e65 	cmnvc	r4, #1616	; 0x650
  2c:	6c756d2f 	ldclvs	13, cr6, [r5], #-188	; 0xffffff44
  30:	69706974 	ldmdbvs	r0!, {r2, r4, r5, r6, r8, fp, sp, lr}^
  34:	6178452f 	cmnvs	r8, pc, lsr #10
  38:	656c706d 	strbvs	r7, [ip, #-109]!	; 0x6d
  3c:	0031305f 	eorseq	r3, r1, pc, asr r0
  40:	65726f63 	ldrbvs	r6, [r2, #-3939]!	; 0xf63
  44:	616d5f32 	cmnvs	sp, r2, lsr pc
  48:	73006e69 	movwvc	r6, #3689	; 0xe69
  4c:	74726174 	ldrbtvc	r6, [r2], #-372	; 0x174
  50:	726f635f 	rsbvc	r6, pc, #2080374785	; 0x7c000001
  54:	75003365 	strvc	r3, [r0, #-869]	; 0x365
  58:	6769736e 	strbvs	r7, [r9, -lr, ror #6]!
  5c:	2064656e 	rsbcs	r6, r4, lr, ror #10
  60:	72616863 	rsbvc	r6, r1, #6488064	; 0x630000
  64:	6f687300 	svcvs	0x00687300
  68:	75207472 	strvc	r7, [r0, #-1138]!	; 0x472
  6c:	6769736e 	strbvs	r7, [r9, -lr, ror #6]!
  70:	2064656e 	rsbcs	r6, r4, lr, ror #10
  74:	00746e69 	rsbseq	r6, r4, r9, ror #28
  78:	65726f63 	ldrbvs	r6, [r2, #-3939]!	; 0xf63
  7c:	75735f30 	ldrbvc	r5, [r3, #-3888]!	; 0xf30
  80:	69616d62 	stmdbvs	r1!, {r1, r5, r6, r8, sl, fp, sp, lr}^
  84:	6f63006e 	svcvs	0x0063006e
  88:	5f336572 	svcpl	0x00336572
  8c:	6e69616d 	powvsez	f6, f1, #5.0
  90:	6e6f6c00 	cdpvs	12, 6, cr6, cr15, cr0, {0}
  94:	6f6c2067 	svcvs	0x006c2067
  98:	7520676e 	strvc	r6, [r0, #-1902]!	; 0x76e
  9c:	6769736e 	strbvs	r7, [r9, -lr, ror #6]!
  a0:	2064656e 	rsbcs	r6, r4, lr, ror #10
  a4:	00746e69 	rsbseq	r6, r4, r9, ror #28
  a8:	676e6f6c 	strbvs	r6, [lr, -ip, ror #30]!
  ac:	6e6f6c20 	cdpvs	12, 6, cr6, cr15, cr0, {1}
  b0:	6e692067 	cdpvs	0, 6, cr2, cr9, cr7, {3}
  b4:	616d0074 	smcvs	53252	; 0xd004
  b8:	632e6e69 	teqvs	lr, #1680	; 0x690
  bc:	6f687300 	svcvs	0x00687300
  c0:	69207472 	stmdbvs	r0!, {r1, r4, r5, r6, sl, ip, sp, lr}
  c4:	6300746e 	movwvs	r7, #1134	; 0x46e
  c8:	3165726f 	cmncc	r5, pc, ror #4
  cc:	69616d5f 	stmdbvs	r1!, {r0, r1, r2, r3, r4, r6, r8, sl, fp, sp, lr}^
  d0:	6975006e 	ldmdbvs	r5!, {r1, r2, r3, r5, r6}^
  d4:	3233746e 	eorscc	r7, r3, #1845493760	; 0x6e000000
  d8:	4700745f 	smlsdmi	r0, pc, r4, r7	; <UNPREDICTABLE>
  dc:	4320554e 	teqmi	r0, #327155712	; 0x13800000
  e0:	392e3420 	stmdbcc	lr!, {r5, sl, ip, sp}
  e4:	3220332e 	eorcc	r3, r0, #-1207959552	; 0xb8000000
  e8:	30353130 	eorscc	r3, r5, r0, lsr r1
  ec:	20393235 	eorscs	r3, r9, r5, lsr r2
  f0:	6c657228 	sfmvs	f7, 2, [r5], #-160	; 0xffffff60
  f4:	65736165 	ldrbvs	r6, [r3, #-357]!	; 0x165
  f8:	415b2029 	cmpmi	fp, r9, lsr #32
  fc:	652f4d52 	strvs	r4, [pc, #-3410]!	; fffff3b2 <i+0xffff702e>
 100:	6465626d 	strbtvs	r6, [r5], #-621	; 0x26d
 104:	2d646564 	cfstr64cs	mvdx6, [r4, #-400]!	; 0xfffffe70
 108:	2d395f34 	ldccs	15, cr5, [r9, #-208]!	; 0xffffff30
 10c:	6e617262 	cdpvs	2, 6, cr7, cr1, cr2, {3}
 110:	72206863 	eorvc	r6, r0, #6488064	; 0x630000
 114:	73697665 	cmnvc	r9, #105906176	; 0x6500000
 118:	206e6f69 	rsbcs	r6, lr, r9, ror #30
 11c:	32343232 	eorscc	r3, r4, #536870915	; 0x20000003
 120:	205d3838 	subscs	r3, sp, r8, lsr r8
 124:	70666d2d 	rsbvc	r6, r6, sp, lsr #26
 128:	656e3d75 	strbvs	r3, [lr, #-3445]!	; 0xd75
 12c:	762d6e6f 	strtvc	r6, [sp], -pc, ror #28
 130:	34767066 	ldrbtcc	r7, [r6], #-102	; 0x66
 134:	666d2d20 	strbtvs	r2, [sp], -r0, lsr #26
 138:	74616f6c 	strbtvc	r6, [r1], #-3948	; 0xf6c
 13c:	6962612d 	stmdbvs	r2!, {r0, r2, r3, r5, r8, sp, lr}^
 140:	7261683d 	rsbvc	r6, r1, #3997696	; 0x3d0000
 144:	6d2d2064 	stcvs	0, cr2, [sp, #-400]!	; 0xfffffe70
 148:	68637261 	stmdavs	r3!, {r0, r5, r6, r9, ip, sp, lr}^
 14c:	6d72613d 	ldfvse	f6, [r2, #-244]!	; 0xffffff0c
 150:	612d3776 	teqvs	sp, r6, ror r7
 154:	746d2d20 	strbtvc	r2, [sp], #-3360	; 0xd20
 158:	3d656e75 	stclcc	14, cr6, [r5, #-468]!	; 0xfffffe2c
 15c:	74726f63 	ldrbtvc	r6, [r2], #-3939	; 0xf63
 160:	612d7865 	teqvs	sp, r5, ror #16
 164:	672d2037 			; <UNDEFINED> instruction: 0x672d2037
 168:	324f2d20 	subcc	r2, pc, #32, 26	; 0x800
 16c:	66662d20 	strbtvs	r2, [r6], -r0, lsr #26
 170:	73656572 	cmnvc	r5, #478150656	; 0x1c800000
 174:	646e6174 	strbtvs	r6, [lr], #-372	; 0x174
 178:	00676e69 	rsbeq	r6, r7, r9, ror #28
 17c:	756c6176 	strbvc	r6, [ip, #-374]!	; 0x176
 180:	6f630065 	svcvs	0x00630065
 184:	6e5f6572 	mrcvs	5, 2, r6, cr15, cr2, {3}
 188:	65006d75 	strvs	r6, [r0, #-3445]	; 0xd75
 18c:	6c62616e 	stfvse	f6, [r2], #-440	; 0xfffffe48
 190:	544a5f65 	strbpl	r5, [sl], #-3941	; 0xf65
 194:	75004741 	strvc	r4, [r0, #-1857]	; 0x741
 198:	5f747261 	svcpl	0x00747261
 19c:	74696e69 	strbtvc	r6, [r9], #-3689	; 0xe69
 1a0:	2f2e2e00 	svccs	0x002e2e00
 1a4:	2e62696c 	cdpcs	9, 6, cr6, cr2, cr12, {3}
 1a8:	75660063 	strbvc	r0, [r6, #-99]!	; 0x63
 1ac:	7300636e 	movwvc	r6, #878	; 0x36e
 1b0:	65726f74 	ldrbvs	r6, [r2, #-3956]!	; 0xf74
 1b4:	61003233 	tstvs	r0, r3, lsr r2
 1b8:	65726464 	ldrbvs	r6, [r2, #-1124]!	; 0x464
 1bc:	6c007373 	stcvs	3, cr7, [r0], {115}	; 0x73
 1c0:	3364616f 	cmncc	r4, #-1073741797	; 0xc000001b
 1c4:	65670032 	strbvs	r0, [r7, #-50]!	; 0x32
 1c8:	6f635f74 	svcvs	0x00635f74
 1cc:	6e5f6572 	mrcvs	5, 2, r6, cr15, cr2, {3}
 1d0:	65626d75 	strbvs	r6, [r2, #-3445]!	; 0xd75
 1d4:	Address 0x000001d4 is out of bounds.


Disassembly of section .debug_frame:

00000000 <.debug_frame>:
   0:	0000000c 	andeq	r0, r0, ip
   4:	ffffffff 			; <UNDEFINED> instruction: 0xffffffff
   8:	7c020001 	stcvc	0, cr0, [r2], {1}
   c:	000d0c0e 	andeq	r0, sp, lr, lsl #24
  10:	0000000c 	andeq	r0, r0, ip
  14:	00000000 	andeq	r0, r0, r0
  18:	0000800c 	andeq	r8, r0, ip
  1c:	00000088 	andeq	r0, r0, r8, lsl #1
  20:	0000000c 	andeq	r0, r0, ip
  24:	00000000 	andeq	r0, r0, r0
  28:	00008094 	muleq	r0, r4, r0
  2c:	00000088 	andeq	r0, r0, r8, lsl #1
  30:	0000000c 	andeq	r0, r0, ip
  34:	00000000 	andeq	r0, r0, r0
  38:	0000811c 	andeq	r8, r0, ip, lsl r1
  3c:	00000088 	andeq	r0, r0, r8, lsl #1
  40:	0000000c 	andeq	r0, r0, ip
  44:	00000000 	andeq	r0, r0, r0
  48:	000081a4 	andeq	r8, r0, r4, lsr #3
  4c:	00000088 	andeq	r0, r0, r8, lsl #1
  50:	0000000c 	andeq	r0, r0, ip
  54:	00000000 	andeq	r0, r0, r0
  58:	0000822c 	andeq	r8, r0, ip, lsr #4
  5c:	00000064 	andeq	r0, r0, r4, rrx
  60:	0000000c 	andeq	r0, r0, ip
  64:	ffffffff 			; <UNDEFINED> instruction: 0xffffffff
  68:	7c020001 	stcvc	0, cr0, [r2], {1}
  6c:	000d0c0e 	andeq	r0, sp, lr, lsl #24
  70:	0000000c 	andeq	r0, r0, ip
  74:	00000060 	andeq	r0, r0, r0, rrx
  78:	00008290 	muleq	r0, r0, r2
  7c:	0000000c 	andeq	r0, r0, ip
  80:	0000000c 	andeq	r0, r0, ip
  84:	00000060 	andeq	r0, r0, r0, rrx
  88:	0000829c 	muleq	r0, ip, r2
  8c:	0000000c 	andeq	r0, r0, ip
  90:	0000000c 	andeq	r0, r0, ip
  94:	00000060 	andeq	r0, r0, r0, rrx
  98:	000082a8 	andeq	r8, r0, r8, lsr #5
  9c:	0000000c 	andeq	r0, r0, ip
  a0:	0000000c 	andeq	r0, r0, ip
  a4:	00000060 	andeq	r0, r0, r0, rrx
  a8:	000082b4 			; <UNDEFINED> instruction: 0x000082b4
  ac:	0000000c 	andeq	r0, r0, ip
  b0:	0000000c 	andeq	r0, r0, ip
  b4:	00000060 	andeq	r0, r0, r0, rrx
  b8:	000082c0 	andeq	r8, r0, r0, asr #5
  bc:	00000008 	andeq	r0, r0, r8
  c0:	0000000c 	andeq	r0, r0, ip
  c4:	00000060 	andeq	r0, r0, r0, rrx
  c8:	000082c8 	andeq	r8, r0, r8, asr #5
  cc:	00000008 	andeq	r0, r0, r8
  d0:	0000000c 	andeq	r0, r0, ip
  d4:	00000060 	andeq	r0, r0, r0, rrx
  d8:	000082d0 	ldrdeq	r8, [r0], -r0
  dc:	00000004 	andeq	r0, r0, r4
  e0:	00000014 	andeq	r0, r0, r4, lsl r0
  e4:	00000060 	andeq	r0, r0, r0, rrx
  e8:	000082d4 	ldrdeq	r8, [r0], -r4
  ec:	000000a4 	andeq	r0, r0, r4, lsr #1
  f0:	02080e44 	andeq	r0, r8, #68, 28	; 0x440
  f4:	00000e4c 	andeq	r0, r0, ip, asr #28

Disassembly of section .debug_loc:

00000000 <.debug_loc>:
   0:	00000004 	andeq	r0, r0, r4
   4:	00000008 	andeq	r0, r0, r8
   8:	00500001 	subseq	r0, r0, r1
   c:	00000000 	andeq	r0, r0, r0
  10:	30000000 	andcc	r0, r0, r0
  14:	34000000 	strcc	r0, [r0], #-0
  18:	01000000 	mrseq	r0, (UNDEF: 0)
  1c:	00345000 	eorseq	r5, r4, r0
  20:	00380000 	eorseq	r0, r8, r0
  24:	00040000 	andeq	r0, r4, r0
  28:	9f5001f3 	svcls	0x005001f3
	...
